target datalayout = "e-m:e-p270:32:32-p271:32:32-p272:64:64-i64:64-i128:128-f80:128-n8:16:32:64-S128"
target triple = "x86_64-pc-linux-gnu"

%class.CodeBlob = type <{ ptr, ptr, ptr, i32, i32, i32, i32, i32, i32, i16, i16, i8, i8, [2 x i8] }>
%class.AdapterFingerPrint = type <{ %union.anon.10, i32, [4 x i8] }>
%union.anon.10 = type { ptr, [8 x i8] }
%class.AdapterHandlerEntry = type { ptr, ptr, ptr, ptr, ptr }
%class.stringStream = type <{ %class.outputStream, ptr, i64, i64, i8, [48 x i8], [7 x i8] }>
%class.outputStream = type { ptr, i32, i8, i32, i64, %class.TimeStamp, ptr, i64 }
%class.TimeStamp = type { i64 }

@.str.65 = private unnamed_addr constant [7 x i8] c"%s(%s)\00", align 1
@_ZN11JvmtiExport35_should_post_dynamic_code_generatedE = external global i8, align 1
@.str.66 = private unnamed_addr constant [3 x i8] c"0x\00", align 1
@.str.67 = private unnamed_addr constant [3 x i8] c"%x\00", align 1

; Function Attrs: mustprogress nounwind uwtable
define linkonce_odr hidden noundef ptr @_ZNK8CodeBlob12header_beginEv(ptr noundef nonnull align 8 dereferenceable(54) %0) #1 comdat align 2 {
  %2 = alloca ptr, align 8
  store ptr %0, ptr %2, align 8
  %3 = load ptr, ptr %2, align 8
  ret ptr %3
}

; Function Attrs: mustprogress nounwind uwtable
define linkonce_odr hidden noundef i32 @_ZN18AdapterFingerPrint5valueEi(ptr noundef nonnull align 8 dereferenceable(20) %0, i32 noundef %1) #1 comdat align 2 {
  %3 = alloca i32, align 4
  %4 = alloca ptr, align 8
  %5 = alloca i32, align 4
  store ptr %0, ptr %4, align 8
  store i32 %1, ptr %5, align 4
  %6 = load ptr, ptr %4, align 8
  %7 = getelementptr inbounds %class.AdapterFingerPrint, ptr %6, i32 0, i32 1
  %8 = load i32, ptr %7, align 8
  %9 = icmp slt i32 %8, 0
  br i1 %9, label %10, label %16

10:                                               ; preds = %2
  %11 = getelementptr inbounds %class.AdapterFingerPrint, ptr %6, i32 0, i32 0
  %12 = load i32, ptr %5, align 4
  %13 = sext i32 %12 to i64
  %14 = getelementptr inbounds [3 x i32], ptr %11, i64 0, i64 %13
  %15 = load i32, ptr %14, align 4
  store i32 %15, ptr %3, align 4
  br label %23

16:                                               ; preds = %2
  %17 = getelementptr inbounds %class.AdapterFingerPrint, ptr %6, i32 0, i32 0
  %18 = load ptr, ptr %17, align 8
  %19 = load i32, ptr %5, align 4
  %20 = sext i32 %19 to i64
  %21 = getelementptr inbounds i32, ptr %18, i64 %20
  %22 = load i32, ptr %21, align 4
  store i32 %22, ptr %3, align 4
  br label %23

23:                                               ; preds = %16, %10
  %24 = load i32, ptr %3, align 4
  ret i32 %24
}

; Function Attrs: mustprogress nounwind uwtable
define linkonce_odr hidden noundef i32 @_ZN18AdapterFingerPrint6lengthEv(ptr noundef nonnull align 8 dereferenceable(20) %0) #1 comdat align 2 {
  %2 = alloca i32, align 4
  %3 = alloca ptr, align 8
  store ptr %0, ptr %3, align 8
  %4 = load ptr, ptr %3, align 8
  %5 = getelementptr inbounds %class.AdapterFingerPrint, ptr %4, i32 0, i32 1
  %6 = load i32, ptr %5, align 8
  %7 = icmp slt i32 %6, 0
  br i1 %7, label %8, label %12

8:                                                ; preds = %1
  %9 = getelementptr inbounds %class.AdapterFingerPrint, ptr %4, i32 0, i32 1
  %10 = load i32, ptr %9, align 8
  %11 = sub nsw i32 0, %10
  store i32 %11, ptr %2, align 4
  br label %15

12:                                               ; preds = %1
  %13 = getelementptr inbounds %class.AdapterFingerPrint, ptr %4, i32 0, i32 1
  %14 = load i32, ptr %13, align 8
  store i32 %14, ptr %2, align 4
  br label %15

15:                                               ; preds = %12, %8
  %16 = load i32, ptr %2, align 4
  ret i32 %16
}

; Function Attrs: mustprogress nounwind uwtable
define linkonce_odr hidden noundef ptr @_ZNK8CodeBlob11content_endEv(ptr noundef nonnull align 8 dereferenceable(54) %0) #1 comdat align 2 {
  %2 = alloca ptr, align 8
  store ptr %0, ptr %2, align 8
  %3 = load ptr, ptr %2, align 8
  %4 = call noundef ptr @_ZNK8CodeBlob12header_beginEv(ptr noundef nonnull align 8 dereferenceable(54) %3)
  %5 = getelementptr inbounds %class.CodeBlob, ptr %3, i32 0, i32 7
  %6 = load i32, ptr %5, align 8
  %7 = sext i32 %6 to i64
  %8 = getelementptr inbounds i8, ptr %4, i64 %7
  ret ptr %8
}

; Function Attrs: mustprogress nounwind uwtable
define linkonce_odr hidden noundef ptr @_ZNK8CodeBlob13content_beginEv(ptr noundef nonnull align 8 dereferenceable(54) %0) #1 comdat align 2 {
  %2 = alloca ptr, align 8
  store ptr %0, ptr %2, align 8
  %3 = load ptr, ptr %2, align 8
  %4 = call noundef ptr @_ZNK8CodeBlob12header_beginEv(ptr noundef nonnull align 8 dereferenceable(54) %3)
  %5 = getelementptr inbounds %class.CodeBlob, ptr %3, i32 0, i32 5
  %6 = load i32, ptr %5, align 8
  %7 = sext i32 %6 to i64
  %8 = getelementptr inbounds i8, ptr %4, i64 %7
  ret ptr %8
}

; Function Attrs: mustprogress nounwind uwtable
define linkonce_odr hidden noundef ptr @_ZN18AdapterFingerPrint9as_stringEv(ptr noundef nonnull align 8 dereferenceable(20) %0) #1 comdat align 2 {
  %2 = alloca ptr, align 8
  %3 = alloca %class.stringStream, align 8
  %4 = alloca i32, align 4
  store ptr %0, ptr %2, align 8
  %5 = load ptr, ptr %2, align 8
  call void @_ZN12stringStreamC1Em(ptr noundef nonnull align 8 dereferenceable(129) %3, i64 noundef 0)
  call void (ptr, ptr, ...) @_ZN12outputStream5printEPKcz(ptr noundef nonnull align 8 dereferenceable(56) %3, ptr noundef @.str.66)
  store i32 0, ptr %4, align 4
  br label %6

6:                                                ; preds = %13, %1
  %7 = load i32, ptr %4, align 4
  %8 = call noundef i32 @_ZN18AdapterFingerPrint6lengthEv(ptr noundef nonnull align 8 dereferenceable(20) %5)
  %9 = icmp slt i32 %7, %8
  br i1 %9, label %10, label %16

10:                                               ; preds = %6
  %11 = load i32, ptr %4, align 4
  %12 = call noundef i32 @_ZN18AdapterFingerPrint5valueEi(ptr noundef nonnull align 8 dereferenceable(20) %5, i32 noundef %11)
  call void (ptr, ptr, ...) @_ZN12outputStream5printEPKcz(ptr noundef nonnull align 8 dereferenceable(56) %3, ptr noundef @.str.67, i32 noundef %12)
  br label %13

13:                                               ; preds = %10
  %14 = load i32, ptr %4, align 4
  %15 = add nsw i32 %14, 1
  store i32 %15, ptr %4, align 4
  br label %6, !llvm.loop !25

16:                                               ; preds = %6
  %17 = call noundef ptr @_ZNK12stringStream9as_stringEb(ptr noundef nonnull align 8 dereferenceable(129) %3, i1 noundef zeroext false)
  call void @_ZN12stringStreamD1Ev(ptr noundef nonnull align 8 dereferenceable(129) %3) #10
  ret ptr %17
}

; Function Attrs: mustprogress nounwind uwtable
define linkonce_odr hidden noundef ptr @_ZNK19AdapterHandlerEntry11fingerprintEv(ptr noundef nonnull align 8 dereferenceable(40) %0) #1 comdat align 2 {
  %2 = alloca ptr, align 8
  store ptr %0, ptr %2, align 8
  %3 = load ptr, ptr %2, align 8
  %4 = getelementptr inbounds %class.AdapterHandlerEntry, ptr %3, i32 0, i32 0
  %5 = load ptr, ptr %4, align 8
  ret ptr %5
}

; Function Attrs: mustprogress nounwind uwtable
define linkonce_odr hidden noundef ptr @_ZNK8CodeBlob4nameEv(ptr noundef nonnull align 8 dereferenceable(54) %0) #1 comdat align 2 {
  %2 = alloca ptr, align 8
  store ptr %0, ptr %2, align 8
  %3 = load ptr, ptr %2, align 8
  %4 = getelementptr inbounds %class.CodeBlob, ptr %3, i32 0, i32 2
  %5 = load ptr, ptr %4, align 8
  ret ptr %5
}

; Function Attrs: mustprogress nounwind uwtable
define linkonce_odr hidden noundef zeroext i1 @_ZN11JvmtiExport34should_post_dynamic_code_generatedEv() #1 comdat align 2 {
  %1 = load i8, ptr @_ZN11JvmtiExport35_should_post_dynamic_code_generatedE, align 1
  %2 = trunc i8 %1 to i1
  ret i1 %2
}

; Function Attrs: mustprogress nounwind uwtable
define internal void @_ZL21post_adapter_creationPK11AdapterBlobPK19AdapterHandlerEntry(ptr noundef %0, ptr noundef %1) #1 {
  %3 = alloca ptr, align 8
  %4 = alloca ptr, align 8
  %5 = alloca [256 x i8], align 16
  store ptr %0, ptr %3, align 8
  store ptr %1, ptr %4, align 8
  %6 = call noundef zeroext i1 @_ZN5Forte10is_enabledEv()
  br i1 %6, label %9, label %7

7:                                                ; preds = %2
  %8 = call noundef zeroext i1 @_ZN11JvmtiExport34should_post_dynamic_code_generatedEv()
  br i1 %8, label %9, label %33

9:                                                ; preds = %7, %2
  %10 = getelementptr inbounds [256 x i8], ptr %5, i64 0, i64 0
  %11 = load ptr, ptr %3, align 8
  %12 = call noundef ptr @_ZNK8CodeBlob4nameEv(ptr noundef nonnull align 8 dereferenceable(54) %11)
  %13 = load ptr, ptr %4, align 8
  %14 = call noundef ptr @_ZNK19AdapterHandlerEntry11fingerprintEv(ptr noundef nonnull align 8 dereferenceable(40) %13)
  %15 = call noundef ptr @_ZN18AdapterFingerPrint9as_stringEv(ptr noundef nonnull align 8 dereferenceable(20) %14)
  %16 = call i32 (ptr, i64, ptr, ...) @jio_snprintf(ptr noundef %10, i64 noundef 256, ptr noundef @.str.65, ptr noundef %12, ptr noundef %15)
  %17 = call noundef zeroext i1 @_ZN5Forte10is_enabledEv()
  br i1 %17, label %18, label %24

18:                                               ; preds = %9
  %19 = getelementptr inbounds [256 x i8], ptr %5, i64 0, i64 0
  %20 = load ptr, ptr %3, align 8
  %21 = call noundef ptr @_ZNK8CodeBlob13content_beginEv(ptr noundef nonnull align 8 dereferenceable(54) %20)
  %22 = load ptr, ptr %3, align 8
  %23 = call noundef ptr @_ZNK8CodeBlob11content_endEv(ptr noundef nonnull align 8 dereferenceable(54) %22)
  call void @_ZN5Forte13register_stubEPKcPhS2_(ptr noundef %19, ptr noundef %21, ptr noundef %23)
  br label %24

24:                                               ; preds = %18, %9
  %25 = call noundef zeroext i1 @_ZN11JvmtiExport34should_post_dynamic_code_generatedEv()
  br i1 %25, label %26, label %32

26:                                               ; preds = %24
  %27 = getelementptr inbounds [256 x i8], ptr %5, i64 0, i64 0
  %28 = load ptr, ptr %3, align 8
  %29 = call noundef ptr @_ZNK8CodeBlob13content_beginEv(ptr noundef nonnull align 8 dereferenceable(54) %28)
  %30 = load ptr, ptr %3, align 8
  %31 = call noundef ptr @_ZNK8CodeBlob11content_endEv(ptr noundef nonnull align 8 dereferenceable(54) %30)
  call void @_ZN11JvmtiExport27post_dynamic_code_generatedEPKcPKvS3_(ptr noundef %27, ptr noundef %29, ptr noundef %31)
  br label %32

32:                                               ; preds = %26, %24
  br label %33

33:                                               ; preds = %32, %7
  ret void
}