; Function Attrs: mustprogress nounwind uwtable
define internal fastcc void @_ZL21post_adapter_creationPK11AdapterBlobPK19AdapterHandlerEntry(ptr noundef %0, ptr nocapture noundef readonly %1) unnamed_addr #0 {
  %3 = alloca %class.stringStream, align 8
  %4 = alloca [256 x i8], align 16
  %5 = tail call noundef zeroext i1 @_ZN5Forte10is_enabledEv() #18
  br i1 %5, label %9, label %6

6:                                                ; preds = %2
  %7 = load i8, ptr @_ZN11JvmtiExport35_should_post_dynamic_code_generatedE, align 1
  %8 = trunc i8 %7 to i1
  br i1 %8, label %9, label %47

9:                                                ; preds = %6, %2
  %10 = getelementptr inbounds i8, ptr %0, i64 16
  %11 = load ptr, ptr %10, align 8
  %12 = load ptr, ptr %1, align 8
  call void @llvm.lifetime.start.p0(i64 136, ptr nonnull %3)
  call void @_ZN12stringStreamC1Em(ptr noundef nonnull align 8 dereferenceable(129) %3, i64 noundef 0) #18
  call void (ptr, ptr, ...) @_ZN12outputStream5printEPKcz(ptr noundef nonnull align 8 dereferenceable(56) %3, ptr noundef nonnull @.str.66) #18
  %13 = getelementptr inbounds i8, ptr %12, i64 16
  %14 = load i32, ptr %13, align 8
  %.not.i = icmp eq i32 %14, 0
  br i1 %.not.i, label %_ZN18AdapterFingerPrint9as_stringEv.exit, label %.lr.ph.i

.lr.ph.i:                                         ; preds = %9, %.lr.ph.i
  %indvars.iv.i = phi i64 [ %indvars.iv.next.i, %.lr.ph.i ], [ 0, %9 ]
  %15 = phi i32 [ %20, %.lr.ph.i ], [ %14, %9 ]
  %16 = icmp slt i32 %15, 0
  %17 = getelementptr inbounds [3 x i32], ptr %12, i64 0, i64 %indvars.iv.i
  %18 = load ptr, ptr %12, align 8
  %19 = getelementptr inbounds i32, ptr %18, i64 %indvars.iv.i
  %.0.in.i.i = select i1 %16, ptr %17, ptr %19
  %.0.i3.i = load i32, ptr %.0.in.i.i, align 4
  call void (ptr, ptr, ...) @_ZN12outputStream5printEPKcz(ptr noundef nonnull align 8 dereferenceable(56) %3, ptr noundef nonnull @.str.67, i32 noundef %.0.i3.i) #18
  %indvars.iv.next.i = add nuw nsw i64 %indvars.iv.i, 1
  %20 = load i32, ptr %13, align 8
  %.0.i.i = call noundef i32 @llvm.abs.i32(i32 %20, i1 true)
  %21 = zext nneg i32 %.0.i.i to i64
  %22 = icmp ult i64 %indvars.iv.next.i, %21
  br i1 %22, label %.lr.ph.i, label %_ZN18AdapterFingerPrint9as_stringEv.exit, !llvm.loop !74

_ZN18AdapterFingerPrint9as_stringEv.exit:         ; preds = %.lr.ph.i, %9
  %23 = call noundef ptr @_ZNK12stringStream9as_stringEb(ptr noundef nonnull align 8 dereferenceable(129) %3, i1 noundef zeroext false) #18
  call void @_ZN12stringStreamD1Ev(ptr noundef nonnull align 8 dereferenceable(129) %3) #18
  call void @llvm.lifetime.end.p0(i64 136, ptr nonnull %3)
  %24 = call i32 (ptr, i64, ptr, ...) @jio_snprintf(ptr noundef nonnull %4, i64 noundef 256, ptr noundef nonnull @.str.65, ptr noundef %11, ptr noundef %23) #18
  %25 = call noundef zeroext i1 @_ZN5Forte10is_enabledEv() #18
  br i1 %25, label %26, label %35

26:                                               ; preds = %_ZN18AdapterFingerPrint9as_stringEv.exit
  %27 = getelementptr inbounds i8, ptr %0, i64 32
  %28 = load i32, ptr %27, align 8
  %29 = sext i32 %28 to i64
  %30 = getelementptr inbounds i8, ptr %0, i64 %29
  %31 = getelementptr inbounds i8, ptr %0, i64 40
  %32 = load i32, ptr %31, align 8
  %33 = sext i32 %32 to i64
  %34 = getelementptr inbounds i8, ptr %0, i64 %33
  call void @_ZN5Forte13register_stubEPKcPhS2_(ptr noundef nonnull %4, ptr noundef %30, ptr noundef %34) #18
  br label %35

35:                                               ; preds = %26, %_ZN18AdapterFingerPrint9as_stringEv.exit
  %36 = load i8, ptr @_ZN11JvmtiExport35_should_post_dynamic_code_generatedE, align 1
  %37 = trunc i8 %36 to i1
  br i1 %37, label %38, label %47

38:                                               ; preds = %35
  %39 = getelementptr inbounds i8, ptr %0, i64 32
  %40 = load i32, ptr %39, align 8
  %41 = sext i32 %40 to i64
  %42 = getelementptr inbounds i8, ptr %0, i64 %41
  %43 = getelementptr inbounds i8, ptr %0, i64 40
  %44 = load i32, ptr %43, align 8
  %45 = sext i32 %44 to i64
  %46 = getelementptr inbounds i8, ptr %0, i64 %45
  call void @_ZN11JvmtiExport27post_dynamic_code_generatedEPKcPKvS3_(ptr noundef nonnull %4, ptr noundef %42, ptr noundef %46) #18
  br label %47

47:                                               ; preds = %35, %38, %6
  ret void
}